(lp0
S'poi'
p1
aS'from_this_person_to_poi'
p2
aS'shared_receipt_with_poi'
p3
aS'loan_advances'
p4
aS'deferred_income'
p5
aS'expenses'
p6
aS'other'
p7
aS'director_fees'
p8
aS'to_messages'
p9
aS'deferral_payments'
p10
aS'total_payments'
p11
aS'restricted_stock_deferred'
p12
aS'from_poi_to_this_person'
p13
aS'from_messages'
p14
a.